target datalayout = "e-m:e-p270:32:32-p271:32:32-p272:64:64-i64:64-i128:128-f80:128-n8:16:32:64-S128"
target triple = "x86_64-pc-linux-gnu"

%struct.rsa_gen_ctx = type { ptr, ptr, i32, i64, ptr, i64, %struct.rsa_pss_params_30_st, i32, ptr, ptr }
%struct.rsa_pss_params_30_st = type { i32, %struct.anon, i32, i32 }
%struct.anon = type { i32, i32 }

@.str = private unnamed_addr constant [57 x i8] c"../openssl/providers/implementations/keymgmt/rsa_kmgmt.c\00", align 1

; Function Attrs: nounwind uwtable
define internal void @rsa_gen_cleanup(ptr noundef %0) #0 {
  %2 = alloca ptr, align 8
  %3 = alloca ptr, align 8
  %4 = alloca i32, align 4
  store ptr %0, ptr %2, align 8, !tbaa !3
  call void @llvm.lifetime.start.p0(i64 8, ptr %3) #6
  %5 = load ptr, ptr %2, align 8, !tbaa !3
  store ptr %5, ptr %3, align 8, !tbaa !15
  %6 = load ptr, ptr %3, align 8, !tbaa !15
  %7 = icmp eq ptr %6, null
  br i1 %7, label %8, label %9

8:                                                ; preds = %1
  store i32 1, ptr %4, align 4
  br label %14

9:                                                ; preds = %1
  %10 = load ptr, ptr %3, align 8, !tbaa !15
  %11 = getelementptr inbounds nuw %struct.rsa_gen_ctx, ptr %10, i32 0, i32 4
  %12 = load ptr, ptr %11, align 8, !tbaa !31
  call void @BN_clear_free(ptr noundef %12)
  %13 = load ptr, ptr %3, align 8, !tbaa !15
  call void @CRYPTO_free(ptr noundef %13, ptr noundef @.str, i32 noundef 649)
  store i32 0, ptr %4, align 4
  br label %14

14:                                               ; preds = %9, %8
  call void @llvm.lifetime.end.p0(i64 8, ptr %3) #6
  %15 = load i32, ptr %4, align 4
  switch i32 %15, label %17 [
    i32 0, label %16
    i32 1, label %16
  ]

16:                                               ; preds = %14, %14
  ret void

17:                                               ; preds = %14
  unreachable
}