; Function Attrs: nounwind uwtable
define internal void @rsa_gen_cleanup(ptr noundef %0) #0 {
  %2 = icmp eq ptr %0, null
  br i1 %2, label %6, label %3

3:                                                ; preds = %1
  %4 = getelementptr inbounds nuw i8, ptr %0, i64 32
  %5 = load ptr, ptr %4, align 8, !tbaa !22
  tail call void @BN_clear_free(ptr noundef %5) #6
  tail call void @CRYPTO_free(ptr noundef nonnull %0, ptr noundef nonnull @.str, i32 noundef 649) #6
  br label %6

6:                                                ; preds = %1, %3
  ret void
}